target datalayout = "e-m:e-p270:32:32-p271:32:32-p272:64:64-i64:64-i128:128-f80:128-n8:16:32:64-S128"
target triple = "x86_64-pc-linux-gnu"

; Function Attrs: mustprogress nounwind uwtable
define internal noundef i32 @_ZN3gmx12_GLOBAL__N_120requiredTopologyInfoE11e_poscalc_ti(i32 noundef %0, i32 noundef %1) #3 {
  %3 = alloca i32, align 4
  %4 = alloca i32, align 4
  %5 = alloca i32, align 4
  store i32 %0, ptr %4, align 4, !tbaa !13
  store i32 %1, ptr %5, align 4, !tbaa !15
  %6 = load i32, ptr %4, align 4, !tbaa !13
  %7 = icmp ne i32 %6, 0
  br i1 %7, label %8, label %25

8:                                                ; preds = %2
  %9 = load i32, ptr %5, align 4, !tbaa !15
  %10 = and i32 %9, 1
  %11 = icmp ne i32 %10, 0
  br i1 %11, label %16, label %12

12:                                               ; preds = %8
  %13 = load i32, ptr %5, align 4, !tbaa !15
  %14 = and i32 %13, 128
  %15 = icmp ne i32 %14, 0
  br i1 %15, label %16, label %17

16:                                               ; preds = %12, %8
  store i32 2, ptr %3, align 4
  br label %26

17:                                               ; preds = %12
  %18 = load i32, ptr %4, align 4, !tbaa !13
  %19 = icmp eq i32 %18, 1
  br i1 %19, label %23, label %20

20:                                               ; preds = %17
  %21 = load i32, ptr %4, align 4, !tbaa !13
  %22 = icmp eq i32 %21, 2
  br i1 %22, label %23, label %24

23:                                               ; preds = %20, %17
  store i32 1, ptr %3, align 4
  br label %26

24:                                               ; preds = %20
  br label %25

25:                                               ; preds = %24, %2
  store i32 0, ptr %3, align 4
  br label %26

26:                                               ; preds = %25, %23, %16
  %27 = load i32, ptr %3, align 4
  ret i32 %27
}

; Function Attrs: mustprogress uwtable
define noundef i32 @_ZN3gmx29PositionCalculationCollection27requiredTopologyInfoForTypeEPKcb(ptr noundef %0, i1 noundef zeroext %1) #0 align 2 {
  %3 = alloca ptr, align 8
  %4 = alloca i8, align 1
  %5 = alloca i32, align 4
  %6 = alloca i32, align 4
  store ptr %0, ptr %3, align 8, !tbaa !4
  %7 = zext i1 %1 to i8
  store i8 %7, ptr %4, align 1, !tbaa !118
  call void @llvm.lifetime.start.p0(i64 4, ptr %5) #17
  call void @llvm.lifetime.start.p0(i64 4, ptr %6) #17
  %8 = load i8, ptr %4, align 1, !tbaa !118, !range !132, !noundef !133
  %9 = trunc i8 %8 to i1
  %10 = select i1 %9, i32 128, i32 0
  store i32 %10, ptr %6, align 4, !tbaa !15
  %11 = load ptr, ptr %3, align 8, !tbaa !4
  call void @_ZN3gmx29PositionCalculationCollection12typeFromEnumEPKcP11e_poscalc_tPi(ptr noundef %11, ptr noundef %5, ptr noundef %6)
  %12 = load i32, ptr %5, align 4, !tbaa !13
  %13 = load i32, ptr %6, align 4, !tbaa !15
  %14 = call noundef i32 @_ZN3gmx12_GLOBAL__N_120requiredTopologyInfoE11e_poscalc_ti(i32 noundef %12, i32 noundef %13)
  call void @llvm.lifetime.end.p0(i64 4, ptr %6) #17
  call void @llvm.lifetime.end.p0(i64 4, ptr %5) #17
  ret i32 %14
}