; Function Attrs: mustprogress uwtable
define noundef range(i32 0, 3) i32 @_ZN3gmx29PositionCalculationCollection27requiredTopologyInfoForTypeEPKcb(ptr noundef readonly captures(none) %0, i1 noundef zeroext %1) local_unnamed_addr #0 align 2 {
  %3 = alloca i32, align 4
  %4 = alloca i32, align 4
  call void @llvm.lifetime.start.p0(i64 4, ptr nonnull %3) #26
  call void @llvm.lifetime.start.p0(i64 4, ptr nonnull %4) #26
  %5 = select i1 %1, i32 128, i32 0
  store i32 %5, ptr %4, align 4, !tbaa !9
  call void @_ZN3gmx29PositionCalculationCollection12typeFromEnumEPKcP11e_poscalc_tPi(ptr noundef %0, ptr noundef nonnull %3, ptr noundef nonnull %4)
  %6 = load i32, ptr %3, align 4, !tbaa !7
  %.not.i = icmp eq i32 %6, 0
  br i1 %.not.i, label %11, label %7

7:                                                ; preds = %2
  %8 = load i32, ptr %4, align 4, !tbaa !9
  %9 = and i32 %8, 129
  %or.cond10.i = icmp eq i32 %9, 0
  br i1 %or.cond10.i, label %10, label %_ZN3gmx12_GLOBAL__N_120requiredTopologyInfoE11e_poscalc_ti.exit

10:                                               ; preds = %7
  %or.cond.i = icmp ult i32 %6, 3
  br i1 %or.cond.i, label %_ZN3gmx12_GLOBAL__N_120requiredTopologyInfoE11e_poscalc_ti.exit, label %11

11:                                               ; preds = %10, %2
  br label %_ZN3gmx12_GLOBAL__N_120requiredTopologyInfoE11e_poscalc_ti.exit

_ZN3gmx12_GLOBAL__N_120requiredTopologyInfoE11e_poscalc_ti.exit: ; preds = %7, %10, %11
  %.0.i = phi i32 [ 0, %11 ], [ 2, %7 ], [ 1, %10 ]
  call void @llvm.lifetime.end.p0(i64 4, ptr nonnull %4) #26
  call void @llvm.lifetime.end.p0(i64 4, ptr nonnull %3) #26
  ret i32 %.0.i
}